target datalayout = "e-m:e-p270:32:32-p271:32:32-p272:64:64-i64:64-i128:128-f80:128-n8:16:32:64-S128"
target triple = "x86_64-pc-linux-gnu"

%struct.SDL_Properties = type { ptr, ptr }
%struct.EnumerateOnePropertyData = type { ptr, ptr, i32 }

@SDL_properties = internal global ptr null, align 8
@.str = private unnamed_addr constant [26 x i8] c"Parameter '%s' is invalid\00", align 1
@.str.3 = private unnamed_addr constant [6 x i8] c"props\00", align 1
@.str.8 = private unnamed_addr constant [9 x i8] c"callback\00", align 1

; Function Attrs: nounwind uwtable
define hidden zeroext i1 @SDL_EnumerateProperties_REAL(i32 noundef %0, ptr noundef %1, ptr noundef %2) #0 {
  %4 = alloca i1, align 1
  %5 = alloca i32, align 4
  %6 = alloca ptr, align 8
  %7 = alloca ptr, align 8
  %8 = alloca ptr, align 8
  %9 = alloca i32, align 4
  %10 = alloca %struct.EnumerateOnePropertyData, align 8
  store i32 %0, ptr %5, align 4
  store ptr %1, ptr %6, align 8
  store ptr %2, ptr %7, align 8
  call void @llvm.lifetime.start.p0(i64 8, ptr %8) #6
  store ptr null, ptr %8, align 8
  %11 = load i32, ptr %5, align 4
  %12 = icmp ne i32 %11, 0
  br i1 %12, label %15, label %13

13:                                               ; preds = %3
  %14 = call zeroext i1 (ptr, ...) @SDL_SetError_REAL(ptr noundef @.str, ptr noundef @.str.3)
  store i1 %14, ptr %4, align 1
  store i32 1, ptr %9, align 4
  br label %48

15:                                               ; preds = %3
  %16 = load ptr, ptr %6, align 8
  %17 = icmp ne ptr %16, null
  br i1 %17, label %20, label %18

18:                                               ; preds = %15
  %19 = call zeroext i1 (ptr, ...) @SDL_SetError_REAL(ptr noundef @.str, ptr noundef @.str.8)
  store i1 %19, ptr %4, align 1
  store i32 1, ptr %9, align 4
  br label %48

20:                                               ; preds = %15
  %21 = load ptr, ptr @SDL_properties, align 8
  %22 = load i32, ptr %5, align 4
  %23 = zext i32 %22 to i64
  %24 = inttoptr i64 %23 to ptr
  %25 = call zeroext i1 @SDL_FindInHashTable(ptr noundef %21, ptr noundef %24, ptr noundef %8)
  %26 = load ptr, ptr %8, align 8
  %27 = icmp ne ptr %26, null
  br i1 %27, label %30, label %28

28:                                               ; preds = %20
  %29 = call zeroext i1 (ptr, ...) @SDL_SetError_REAL(ptr noundef @.str, ptr noundef @.str.3)
  store i1 %29, ptr %4, align 1
  store i32 1, ptr %9, align 4
  br label %48

30:                                               ; preds = %20
  %31 = load ptr, ptr %8, align 8
  %32 = getelementptr inbounds nuw %struct.SDL_Properties, ptr %31, i32 0, i32 1
  %33 = load ptr, ptr %32, align 8
  call void @SDL_LockMutex_REAL(ptr noundef %33)
  call void @llvm.lifetime.start.p0(i64 24, ptr %10) #6
  %34 = getelementptr inbounds nuw %struct.EnumerateOnePropertyData, ptr %10, i32 0, i32 0
  %35 = load ptr, ptr %6, align 8
  store ptr %35, ptr %34, align 8
  %36 = getelementptr inbounds nuw %struct.EnumerateOnePropertyData, ptr %10, i32 0, i32 1
  %37 = load ptr, ptr %7, align 8
  store ptr %37, ptr %36, align 8
  %38 = getelementptr inbounds nuw %struct.EnumerateOnePropertyData, ptr %10, i32 0, i32 2
  %39 = load i32, ptr %5, align 4
  store i32 %39, ptr %38, align 8
  %40 = getelementptr i8, ptr %10, i64 20
  call void @llvm.memset.p0.i64(ptr align 4 %40, i8 0, i64 4, i1 false)
  %41 = load ptr, ptr %8, align 8
  %42 = getelementptr inbounds nuw %struct.SDL_Properties, ptr %41, i32 0, i32 0
  %43 = load ptr, ptr %42, align 8
  %44 = call zeroext i1 @SDL_IterateHashTable(ptr noundef %43, ptr noundef @EnumerateOneProperty, ptr noundef %10)
  call void @llvm.lifetime.end.p0(i64 24, ptr %10) #6
  %45 = load ptr, ptr %8, align 8
  %46 = getelementptr inbounds nuw %struct.SDL_Properties, ptr %45, i32 0, i32 1
  %47 = load ptr, ptr %46, align 8
  call void @SDL_UnlockMutex_REAL(ptr noundef %47)
  store i1 true, ptr %4, align 1
  store i32 1, ptr %9, align 4
  br label %48

48:                                               ; preds = %30, %28, %18, %13
  call void @llvm.lifetime.end.p0(i64 8, ptr %8) #6
  %49 = load i1, ptr %4, align 1
  ret i1 %49
}