; Function Attrs: nounwind uwtable
define hidden zeroext i1 @SDL_EnumerateProperties_REAL(i32 noundef %0, ptr noundef %1, ptr noundef %2) local_unnamed_addr #0 {
  %4 = alloca ptr, align 8
  %5 = alloca %struct.EnumerateOnePropertyData, align 8
  call void @llvm.lifetime.start.p0(i64 8, ptr nonnull %4) #6
  store ptr null, ptr %4, align 8
  %.not = icmp eq i32 %0, 0
  br i1 %.not, label %6, label %8

6:                                                ; preds = %3
  %7 = tail call zeroext i1 (ptr, ...) @SDL_SetError_REAL(ptr noundef nonnull @.str, ptr noundef nonnull @.str.3) #6
  br label %31

8:                                                ; preds = %3
  %.not9 = icmp eq ptr %1, null
  br i1 %.not9, label %9, label %11

9:                                                ; preds = %8
  %10 = tail call zeroext i1 (ptr, ...) @SDL_SetError_REAL(ptr noundef nonnull @.str, ptr noundef nonnull @.str.8) #6
  br label %31

11:                                               ; preds = %8
  %12 = load ptr, ptr @SDL_properties, align 8
  %13 = zext i32 %0 to i64
  %14 = inttoptr i64 %13 to ptr
  %15 = call zeroext i1 @SDL_FindInHashTable(ptr noundef %12, ptr noundef nonnull %14, ptr noundef nonnull %4) #6
  %16 = load ptr, ptr %4, align 8
  %.not10 = icmp eq ptr %16, null
  br i1 %.not10, label %17, label %19

17:                                               ; preds = %11
  %18 = call zeroext i1 (ptr, ...) @SDL_SetError_REAL(ptr noundef nonnull @.str, ptr noundef nonnull @.str.3) #6
  br label %31

19:                                               ; preds = %11
  %20 = getelementptr inbounds nuw i8, ptr %16, i64 8
  %21 = load ptr, ptr %20, align 8
  call void @SDL_LockMutex_REAL(ptr noundef %21) #6
  call void @llvm.lifetime.start.p0(i64 24, ptr nonnull %5) #6
  store ptr %1, ptr %5, align 8
  %22 = getelementptr inbounds nuw i8, ptr %5, i64 8
  store ptr %2, ptr %22, align 8
  %23 = getelementptr inbounds nuw i8, ptr %5, i64 16
  store i32 %0, ptr %23, align 8
  %24 = getelementptr inbounds nuw i8, ptr %5, i64 20
  store i32 0, ptr %24, align 4
  %25 = load ptr, ptr %4, align 8
  %26 = load ptr, ptr %25, align 8
  %27 = call zeroext i1 @SDL_IterateHashTable(ptr noundef %26, ptr noundef nonnull @EnumerateOneProperty, ptr noundef nonnull %5) #6
  call void @llvm.lifetime.end.p0(i64 24, ptr nonnull %5) #6
  %28 = load ptr, ptr %4, align 8
  %29 = getelementptr inbounds nuw i8, ptr %28, i64 8
  %30 = load ptr, ptr %29, align 8
  call void @SDL_UnlockMutex_REAL(ptr noundef %30) #6
  br label %31

31:                                               ; preds = %19, %17, %9, %6
  %.0 = phi i1 [ true, %19 ], [ %18, %17 ], [ %10, %9 ], [ %7, %6 ]
  call void @llvm.lifetime.end.p0(i64 8, ptr nonnull %4) #6
  ret i1 %.0
}